target datalayout = "e-m:e-p270:32:32-p271:32:32-p272:64:64-i64:64-i128:128-f80:128-n8:16:32:64-S128"
target triple = "x86_64-pc-linux-gnu"

%struct.dt_pthread_mutex_t = type { %union.pthread_mutex_t }
%union.pthread_mutex_t = type { %struct.__pthread_mutex_s }
%struct.__pthread_mutex_s = type { i32, i32, i32, i32, i32, i16, i16, %struct.__pthread_internal_list }
%struct.__pthread_internal_list = type { ptr, ptr }
%struct.dt_iop_module_so_t = type { %struct.dt_action_t, ptr, ptr, ptr, ptr, ptr, ptr, ptr, ptr, ptr, ptr, ptr, ptr, ptr, ptr, ptr, ptr, ptr, ptr, ptr, ptr, ptr, ptr, ptr, ptr, ptr, ptr, ptr, ptr, ptr, ptr, ptr, ptr, ptr, ptr, ptr, ptr, ptr, ptr, ptr, ptr, ptr, ptr, ptr, ptr, ptr, ptr, ptr, ptr, ptr, ptr, ptr, ptr, ptr, ptr, ptr, ptr, [20 x i8], ptr, i32, ptr, i32, i32 }
%struct.dt_action_t = type { i32, ptr, ptr, ptr, ptr, ptr }
%struct.dt_iop_module_t = type { i32, ptr, ptr, ptr, ptr, ptr, ptr, ptr, ptr, ptr, ptr, ptr, ptr, ptr, ptr, ptr, ptr, ptr, ptr, ptr, ptr, ptr, ptr, ptr, ptr, ptr, ptr, ptr, ptr, ptr, ptr, ptr, ptr, ptr, ptr, ptr, ptr, ptr, ptr, ptr, ptr, ptr, ptr, ptr, ptr, ptr, ptr, ptr, ptr, ptr, ptr, ptr, ptr, ptr, ptr, ptr, ptr, [20 x i8], i32, i32, i32, i32, i32, i32, i32, [8 x i8], [4 x float], [4 x float], [4 x float], [4 x float], [4 x float], [4 x float], ptr, %struct.dt_dev_histogram_stats_t, [4 x i32], i32, i32, ptr, i32, i32, ptr, ptr, i32, ptr, %struct.dt_pthread_mutex_t, ptr, ptr, ptr, ptr, %struct.anon.4, ptr, ptr, ptr, ptr, ptr, ptr, ptr, i32, ptr, ptr, ptr, ptr, ptr, ptr, ptr, i32, ptr, i32, [128 x i8], i32, ptr, ptr, i32, [12 x i8] }
%struct.dt_dev_histogram_stats_t = type { i32, i64, i32, i32 }
%struct.anon.4 = type { %struct.anon.5, %struct.anon.6 }
%struct.anon.5 = type { ptr, ptr }
%struct.anon.6 = type { ptr, i32 }

@.str.49 = private unnamed_addr constant [15 x i8] c"delete preset?\00", align 1
@.str.50 = private unnamed_addr constant [46 x i8] c"do you really want to delete the preset `%s'?\00", align 1
@.str.179 = private unnamed_addr constant [46 x i8] c"preset `%s' is write-protected, can't delete!\00", align 1
@.str.180 = private unnamed_addr constant [51 x i8] c"plugins/lighttable/preset/ask_before_delete_preset\00", align 1

; Function Attrs: nounwind uwtable
define internal void @_menuitem_delete_preset(ptr noundef %0, ptr noundef %1) #0 {
  %3 = alloca ptr, align 8
  %4 = alloca ptr, align 8
  %5 = alloca i32, align 4
  %6 = alloca ptr, align 8
  %7 = alloca i32, align 4
  store ptr %0, ptr %3, align 8, !tbaa !191
  store ptr %1, ptr %4, align 8, !tbaa !83
  call void @llvm.lifetime.start.p0(i64 4, ptr %5) #11
  store i32 0, ptr %5, align 4, !tbaa !13
  call void @llvm.lifetime.start.p0(i64 8, ptr %6) #11
  %8 = load ptr, ptr %4, align 8, !tbaa !83
  %9 = call ptr @dt_get_active_preset_name(ptr noundef %8, ptr noundef %5)
  store ptr %9, ptr %6, align 8, !tbaa !11
  %10 = load ptr, ptr %6, align 8, !tbaa !11
  %11 = icmp eq ptr %10, null
  br i1 %11, label %12, label %13

12:                                               ; preds = %2
  store i32 1, ptr %7, align 4
  br label %45

13:                                               ; preds = %2
  %14 = load i32, ptr %5, align 4, !tbaa !13
  %15 = icmp ne i32 %14, 0
  br i1 %15, label %16, label %20

16:                                               ; preds = %13
  %17 = call ptr @dcgettext(ptr noundef null, ptr noundef @.str.179, i32 noundef 5) #11
  %18 = load ptr, ptr %6, align 8, !tbaa !11
  call void (ptr, ...) @dt_control_log(ptr noundef %17, ptr noundef %18)
  %19 = load ptr, ptr %6, align 8, !tbaa !11
  call void @g_free(ptr noundef %19)
  store i32 1, ptr %7, align 4
  br label %45

20:                                               ; preds = %13
  %21 = call i32 @dt_conf_get_bool(ptr noundef @.str.180)
  %22 = icmp ne i32 %21, 0
  br i1 %22, label %23, label %29

23:                                               ; preds = %20
  %24 = call ptr @dcgettext(ptr noundef null, ptr noundef @.str.49, i32 noundef 5) #11
  %25 = call ptr @dcgettext(ptr noundef null, ptr noundef @.str.50, i32 noundef 5) #11
  %26 = load ptr, ptr %6, align 8, !tbaa !11
  %27 = call i32 (ptr, ptr, ...) @dt_gui_show_yes_no_dialog(ptr noundef %24, ptr noundef %25, ptr noundef %26)
  %28 = icmp ne i32 %27, 0
  br i1 %28, label %29, label %43

29:                                               ; preds = %23, %20
  %30 = load ptr, ptr %4, align 8, !tbaa !83
  %31 = getelementptr inbounds nuw %struct.dt_iop_module_t, ptr %30, i32 0, i32 106
  %32 = load ptr, ptr %31, align 16, !tbaa !152
  %33 = getelementptr inbounds nuw %struct.dt_iop_module_so_t, ptr %32, i32 0, i32 0
  %34 = load ptr, ptr %6, align 8, !tbaa !11
  call void @dt_action_rename_preset(ptr noundef %33, ptr noundef %34, ptr noundef null)
  %35 = load ptr, ptr %6, align 8, !tbaa !11
  %36 = load ptr, ptr %4, align 8, !tbaa !83
  %37 = getelementptr inbounds nuw %struct.dt_iop_module_t, ptr %36, i32 0, i32 57
  %38 = getelementptr inbounds [20 x i8], ptr %37, i64 0, i64 0
  %39 = load ptr, ptr %4, align 8, !tbaa !83
  %40 = getelementptr inbounds nuw %struct.dt_iop_module_t, ptr %39, i32 0, i32 1
  %41 = load ptr, ptr %40, align 8, !tbaa !97
  %42 = call i32 (...) %41()
  call void @dt_lib_presets_remove(ptr noundef %35, ptr noundef %38, i32 noundef %42)
  br label %43

43:                                               ; preds = %29, %23
  %44 = load ptr, ptr %6, align 8, !tbaa !11
  call void @g_free(ptr noundef %44)
  store i32 0, ptr %7, align 4
  br label %45

45:                                               ; preds = %43, %16, %12
  call void @llvm.lifetime.end.p0(i64 8, ptr %6) #11
  call void @llvm.lifetime.end.p0(i64 4, ptr %5) #11
  %46 = load i32, ptr %7, align 4
  switch i32 %46, label %48 [
    i32 0, label %47
    i32 1, label %47
  ]

47:                                               ; preds = %45, %45
  ret void

48:                                               ; preds = %45
  unreachable
}