; Function Attrs: nounwind uwtable
define internal void @_menuitem_delete_preset(ptr readnone captures(none) %0, ptr noundef %1) #0 {
  %3 = alloca i32, align 4
  call void @llvm.lifetime.start.p0(i64 4, ptr nonnull %3) #16
  store i32 0, ptr %3, align 4, !tbaa !117
  %4 = call ptr @dt_get_active_preset_name(ptr noundef %1, ptr noundef nonnull %3) #16
  %5 = icmp eq ptr %4, null
  br i1 %5, label %23, label %6

6:                                                ; preds = %2
  %7 = load i32, ptr %3, align 4, !tbaa !117
  %.not = icmp eq i32 %7, 0
  br i1 %.not, label %10, label %8

8:                                                ; preds = %6
  %9 = call ptr @dcgettext(ptr noundef null, ptr noundef nonnull @.str.179, i32 noundef 5) #16
  call void (ptr, ...) @dt_control_log(ptr noundef %9, ptr noundef nonnull %4) #16
  br label %.sink.split

10:                                               ; preds = %6
  %11 = call i32 @dt_conf_get_bool(ptr noundef nonnull @.str.180) #16
  %.not11 = icmp eq i32 %11, 0
  br i1 %.not11, label %16, label %12

12:                                               ; preds = %10
  %13 = call ptr @dcgettext(ptr noundef null, ptr noundef nonnull @.str.49, i32 noundef 5) #16
  %14 = call ptr @dcgettext(ptr noundef null, ptr noundef nonnull @.str.50, i32 noundef 5) #16
  %15 = call i32 (ptr, ptr, ...) @dt_gui_show_yes_no_dialog(ptr noundef %13, ptr noundef %14, ptr noundef nonnull %4) #16
  %.not12 = icmp eq i32 %15, 0
  br i1 %.not12, label %.sink.split, label %16

16:                                               ; preds = %12, %10
  %17 = getelementptr inbounds nuw i8, ptr %1, i64 944
  %18 = load ptr, ptr %17, align 16, !tbaa !127
  call void @dt_action_rename_preset(ptr noundef %18, ptr noundef nonnull %4, ptr noundef null) #16
  %19 = getelementptr inbounds nuw i8, ptr %1, i64 456
  %20 = getelementptr inbounds nuw i8, ptr %1, i64 8
  %21 = load ptr, ptr %20, align 8, !tbaa !72
  %22 = call i32 (...) %21() #16
  call void @dt_lib_presets_remove(ptr noundef nonnull %4, ptr noundef nonnull %19, i32 noundef %22) #16
  br label %.sink.split

.sink.split:                                      ; preds = %12, %16, %8
  call void @g_free(ptr noundef nonnull %4) #16
  br label %23

23:                                               ; preds = %.sink.split, %2
  call void @llvm.lifetime.end.p0(i64 4, ptr nonnull %3) #16
  ret void
}